target datalayout = "e-m:e-p270:32:32-p271:32:32-p272:64:64-i64:64-i128:128-f80:128-n8:16:32:64-S128"
target triple = "x86_64-pc-linux-gnu"

%class.ShenandoahPhaseTimings = type { i32, [316 x double], [316 x %class.HdrSeq], [316 x ptr], ptr }
%class.HdrSeq = type { %class.NumberSeq, ptr }
%class.NumberSeq = type { %class.AbsSeq, double, double }
%class.AbsSeq = type { ptr, i32, double, double, double, double, double }
%class.WorkerDataArray = type { ptr, i32, ptr, ptr, i8, [9 x ptr] }

; Function Attrs: mustprogress nounwind uwtable
define internal void @_ZL16compiler_barrierv() #1 {
  call void asm sideeffect "", "~{memory},~{dirflag},~{fpsr},~{flags}"() #5, !srcloc !20
  ret void
}

; Function Attrs: mustprogress nounwind uwtable
define linkonce_odr hidden void @_ZN15WorkerDataArrayIdE7set_allEd(ptr noundef nonnull align 8 dereferenceable(112) %0, double noundef %1) #1 comdat align 2 {
  %3 = alloca ptr, align 8
  %4 = alloca double, align 8
  %5 = alloca i32, align 4
  store ptr %0, ptr %3, align 8
  store double %1, ptr %4, align 8
  %6 = load ptr, ptr %3, align 8
  store i32 0, ptr %5, align 4
  br label %7

7:                                                ; preds = %19, %2
  %8 = load i32, ptr %5, align 4
  %9 = getelementptr inbounds %class.WorkerDataArray, ptr %6, i32 0, i32 1
  %10 = load i32, ptr %9, align 8
  %11 = icmp ult i32 %8, %10
  br i1 %11, label %12, label %22

12:                                               ; preds = %7
  %13 = load double, ptr %4, align 8
  %14 = getelementptr inbounds %class.WorkerDataArray, ptr %6, i32 0, i32 0
  %15 = load ptr, ptr %14, align 8
  %16 = load i32, ptr %5, align 4
  %17 = zext i32 %16 to i64
  %18 = getelementptr inbounds double, ptr %15, i64 %17
  store double %13, ptr %18, align 8
  br label %19

19:                                               ; preds = %12
  %20 = load i32, ptr %5, align 4
  %21 = add i32 %20, 1
  store i32 %21, ptr %5, align 4
  br label %7, !llvm.loop !33

22:                                               ; preds = %7
  ret void
}

; Function Attrs: mustprogress nounwind uwtable
define linkonce_odr hidden void @_ZN11OrderAccess5fenceEv() #1 comdat align 2 {
  call void asm sideeffect "lock; addl $$0,0(%rsp)", "~{cc},~{memory},~{dirflag},~{fpsr},~{flags}"() #5, !srcloc !16
  call void @_ZL16compiler_barrierv()
  ret void
}

; Function Attrs: mustprogress nounwind uwtable
define linkonce_odr hidden void @_ZN15WorkerDataArrayIdE5resetEv(ptr noundef nonnull align 8 dereferenceable(112) %0) #1 comdat align 2 {
  %2 = alloca ptr, align 8
  %3 = alloca i32, align 4
  store ptr %0, ptr %2, align 8
  %4 = load ptr, ptr %2, align 8
  %5 = call noundef double @_ZN15WorkerDataArrayIdE13uninitializedEv()
  call void @_ZN15WorkerDataArrayIdE7set_allEd(ptr noundef nonnull align 8 dereferenceable(112) %4, double noundef %5)
  store i32 0, ptr %3, align 4
  br label %6

6:                                                ; preds = %23, %1
  %7 = load i32, ptr %3, align 4
  %8 = icmp ult i32 %7, 9
  br i1 %8, label %9, label %26

9:                                                ; preds = %6
  %10 = getelementptr inbounds %class.WorkerDataArray, ptr %4, i32 0, i32 5
  %11 = load i32, ptr %3, align 4
  %12 = zext i32 %11 to i64
  %13 = getelementptr inbounds [9 x ptr], ptr %10, i64 0, i64 %12
  %14 = load ptr, ptr %13, align 8
  %15 = icmp ne ptr %14, null
  br i1 %15, label %16, label %22

16:                                               ; preds = %9
  %17 = getelementptr inbounds %class.WorkerDataArray, ptr %4, i32 0, i32 5
  %18 = load i32, ptr %3, align 4
  %19 = zext i32 %18 to i64
  %20 = getelementptr inbounds [9 x ptr], ptr %17, i64 0, i64 %19
  %21 = load ptr, ptr %20, align 8
  call void @_ZN15WorkerDataArrayImE5resetEv(ptr noundef nonnull align 8 dereferenceable(112) %21)
  br label %22

22:                                               ; preds = %16, %9
  br label %23

23:                                               ; preds = %22
  %24 = load i32, ptr %3, align 4
  %25 = add i32 %24, 1
  store i32 %25, ptr %3, align 4
  br label %6, !llvm.loop !11

26:                                               ; preds = %6
  ret void
}

; Function Attrs: mustprogress nounwind uwtable
define linkonce_odr hidden noundef double @_ZN22ShenandoahPhaseTimings13uninitializedEv() #1 comdat align 2 {
  ret double -1.000000e+00
}

; Function Attrs: mustprogress nounwind uwtable
define hidden void @_ZN22ShenandoahPhaseTimings21flush_cycle_to_globalEv(ptr noundef nonnull align 8 dereferenceable(30352) %0) #1 align 2 {
  %2 = alloca ptr, align 8
  %3 = alloca i32, align 4
  store ptr %0, ptr %2, align 8
  %4 = load ptr, ptr %2, align 8
  store i32 0, ptr %3, align 4
  br label %5

5:                                                ; preds = %48, %1
  %6 = load i32, ptr %3, align 4
  %7 = icmp ult i32 %6, 316
  br i1 %7, label %8, label %51

8:                                                ; preds = %5
  %9 = getelementptr inbounds %class.ShenandoahPhaseTimings, ptr %4, i32 0, i32 1
  %10 = load i32, ptr %3, align 4
  %11 = zext i32 %10 to i64
  %12 = getelementptr inbounds [316 x double], ptr %9, i64 0, i64 %11
  %13 = load double, ptr %12, align 8
  %14 = call noundef double @_ZN22ShenandoahPhaseTimings13uninitializedEv()
  %15 = fcmp une double %13, %14
  br i1 %15, label %16, label %34

16:                                               ; preds = %8
  %17 = getelementptr inbounds %class.ShenandoahPhaseTimings, ptr %4, i32 0, i32 2
  %18 = load i32, ptr %3, align 4
  %19 = zext i32 %18 to i64
  %20 = getelementptr inbounds [316 x %class.HdrSeq], ptr %17, i64 0, i64 %19
  %21 = getelementptr inbounds %class.ShenandoahPhaseTimings, ptr %4, i32 0, i32 1
  %22 = load i32, ptr %3, align 4
  %23 = zext i32 %22 to i64
  %24 = getelementptr inbounds [316 x double], ptr %21, i64 0, i64 %23
  %25 = load double, ptr %24, align 8
  %26 = load ptr, ptr %20, align 8
  %27 = getelementptr inbounds ptr, ptr %26, i64 1
  %28 = load ptr, ptr %27, align 8
  call void %28(ptr noundef nonnull align 8 dereferenceable(80) %20, double noundef %25)
  %29 = call noundef double @_ZN22ShenandoahPhaseTimings13uninitializedEv()
  %30 = getelementptr inbounds %class.ShenandoahPhaseTimings, ptr %4, i32 0, i32 1
  %31 = load i32, ptr %3, align 4
  %32 = zext i32 %31 to i64
  %33 = getelementptr inbounds [316 x double], ptr %30, i64 0, i64 %32
  store double %29, ptr %33, align 8
  br label %34

34:                                               ; preds = %16, %8
  %35 = getelementptr inbounds %class.ShenandoahPhaseTimings, ptr %4, i32 0, i32 3
  %36 = load i32, ptr %3, align 4
  %37 = zext i32 %36 to i64
  %38 = getelementptr inbounds [316 x ptr], ptr %35, i64 0, i64 %37
  %39 = load ptr, ptr %38, align 8
  %40 = icmp ne ptr %39, null
  br i1 %40, label %41, label %47

41:                                               ; preds = %34
  %42 = getelementptr inbounds %class.ShenandoahPhaseTimings, ptr %4, i32 0, i32 3
  %43 = load i32, ptr %3, align 4
  %44 = zext i32 %43 to i64
  %45 = getelementptr inbounds [316 x ptr], ptr %42, i64 0, i64 %44
  %46 = load ptr, ptr %45, align 8
  call void @_ZN15WorkerDataArrayIdE5resetEv(ptr noundef nonnull align 8 dereferenceable(112) %46)
  br label %47

47:                                               ; preds = %41, %34
  br label %48

48:                                               ; preds = %47
  %49 = load i32, ptr %3, align 4
  %50 = add i32 %49, 1
  store i32 %50, ptr %3, align 4
  br label %5, !llvm.loop !15

51:                                               ; preds = %5
  call void @_ZN11OrderAccess5fenceEv()
  ret void
}