; Function Attrs: mustprogress nounwind uwtable
define hidden void @_ZN22ShenandoahPhaseTimings21flush_cycle_to_globalEv(ptr noundef nonnull align 8 dereferenceable(30352) %0) local_unnamed_addr #1 align 2 {
  %2 = getelementptr inbounds i8, ptr %0, i64 8
  %3 = getelementptr inbounds i8, ptr %0, i64 2536
  %4 = getelementptr inbounds i8, ptr %0, i64 27816
  br label %5

5:                                                ; preds = %1, %_ZN15WorkerDataArrayIdE5resetEv.exit
  %indvars.iv = phi i64 [ 0, %1 ], [ %indvars.iv.next, %_ZN15WorkerDataArrayIdE5resetEv.exit ]
  %6 = getelementptr inbounds [316 x double], ptr %2, i64 0, i64 %indvars.iv
  %7 = load double, ptr %6, align 8
  %8 = fcmp une double %7, -1.000000e+00
  br i1 %8, label %9, label %14

9:                                                ; preds = %5
  %10 = getelementptr inbounds [316 x %class.HdrSeq], ptr %3, i64 0, i64 %indvars.iv
  %11 = load ptr, ptr %10, align 8
  %12 = getelementptr inbounds i8, ptr %11, i64 8
  %13 = load ptr, ptr %12, align 8
  tail call void %13(ptr noundef nonnull align 8 dereferenceable(80) %10, double noundef %7) #12
  store double -1.000000e+00, ptr %6, align 8
  br label %14

14:                                               ; preds = %9, %5
  %15 = getelementptr inbounds [316 x ptr], ptr %4, i64 0, i64 %indvars.iv
  %16 = load ptr, ptr %15, align 8
  %.not = icmp eq ptr %16, null
  br i1 %.not, label %_ZN15WorkerDataArrayIdE5resetEv.exit, label %17

17:                                               ; preds = %14
  %18 = tail call noundef double @_ZN15WorkerDataArrayIdE13uninitializedEv() #12
  %19 = getelementptr inbounds i8, ptr %16, i64 8
  %20 = load i32, ptr %19, align 8
  %.not.i.i = icmp eq i32 %20, 0
  br i1 %.not.i.i, label %_ZN15WorkerDataArrayIdE7set_allEd.exit.i, label %.lr.ph.i.i

.lr.ph.i.i:                                       ; preds = %17, %.lr.ph.i.i
  %indvars.iv.i.i = phi i64 [ %indvars.iv.next.i.i, %.lr.ph.i.i ], [ 0, %17 ]
  %21 = load ptr, ptr %16, align 8
  %22 = getelementptr inbounds double, ptr %21, i64 %indvars.iv.i.i
  store double %18, ptr %22, align 8
  %indvars.iv.next.i.i = add nuw nsw i64 %indvars.iv.i.i, 1
  %23 = load i32, ptr %19, align 8
  %24 = zext i32 %23 to i64
  %25 = icmp ult i64 %indvars.iv.next.i.i, %24
  br i1 %25, label %.lr.ph.i.i, label %_ZN15WorkerDataArrayIdE7set_allEd.exit.i, !llvm.loop !8

_ZN15WorkerDataArrayIdE7set_allEd.exit.i:         ; preds = %.lr.ph.i.i, %17
  %26 = getelementptr inbounds i8, ptr %16, i64 40
  br label %27

27:                                               ; preds = %31, %_ZN15WorkerDataArrayIdE7set_allEd.exit.i
  %indvars.iv.i = phi i64 [ 0, %_ZN15WorkerDataArrayIdE7set_allEd.exit.i ], [ %indvars.iv.next.i, %31 ]
  %28 = getelementptr inbounds [9 x ptr], ptr %26, i64 0, i64 %indvars.iv.i
  %29 = load ptr, ptr %28, align 8
  %.not.i = icmp eq ptr %29, null
  br i1 %.not.i, label %31, label %30

30:                                               ; preds = %27
  tail call void @_ZN15WorkerDataArrayImE5resetEv(ptr noundef nonnull align 8 dereferenceable(112) %29)
  br label %31

31:                                               ; preds = %30, %27
  %indvars.iv.next.i = add nuw nsw i64 %indvars.iv.i, 1
  %exitcond.not.i = icmp eq i64 %indvars.iv.next.i, 9
  br i1 %exitcond.not.i, label %_ZN15WorkerDataArrayIdE5resetEv.exit, label %27, !llvm.loop !9

_ZN15WorkerDataArrayIdE5resetEv.exit:             ; preds = %31, %14
  %indvars.iv.next = add nuw nsw i64 %indvars.iv, 1
  %exitcond.not = icmp eq i64 %indvars.iv.next, 316
  br i1 %exitcond.not, label %32, label %5, !llvm.loop !16

32:                                               ; preds = %_ZN15WorkerDataArrayIdE5resetEv.exit
  tail call void asm sideeffect "lock; addl $$0,0(%rsp)", "~{cc},~{memory},~{dirflag},~{fpsr},~{flags}"() #12, !srcloc !17
  tail call void asm sideeffect "", "~{memory},~{dirflag},~{fpsr},~{flags}"() #12, !srcloc !18
  ret void
}